
_interrupt:

;Button.c,59 :: 		void interrupt()
;Button.c,61 :: 		if( PIR3.RC2IF )
	BTFSS       PIR3+0, 5 
	GOTO        L_interrupt0
;Button.c,63 :: 		readGPS[0] = 'A';
	MOVLW       65
	MOVWF       _readGPS+0 
;Button.c,64 :: 		readGPS[1] = 'T';
	MOVLW       84
	MOVWF       _readGPS+1 
;Button.c,65 :: 		readGPS[indGPS] = UART2_Read();
	MOVLW       _readGPS+0
	ADDWF       _indGPS+0, 0 
	MOVWF       FLOC__interrupt+0 
	MOVLW       hi_addr(_readGPS+0)
	ADDWFC      _indGPS+1, 0 
	MOVWF       FLOC__interrupt+1 
	CALL        _UART2_Read+0, 0
	MOVFF       FLOC__interrupt+0, FSR1
	MOVFF       FLOC__interrupt+1, FSR1H
	MOVF        R0, 0 
	MOVWF       POSTINC1+0 
;Button.c,66 :: 		indGPS = indGPS + 1;
	INFSNZ      _indGPS+0, 1 
	INCF        _indGPS+1, 1 
;Button.c,67 :: 		if(readGPS[2]=='$' && readGPS[indGPS-2]==13 && readGPS[indGPS-1]==10)
	MOVF        _readGPS+2, 0 
	XORLW       36
	BTFSS       STATUS+0, 2 
	GOTO        L_interrupt3
	MOVLW       2
	SUBWF       _indGPS+0, 0 
	MOVWF       R0 
	MOVLW       0
	SUBWFB      _indGPS+1, 0 
	MOVWF       R1 
	MOVLW       _readGPS+0
	ADDWF       R0, 0 
	MOVWF       FSR0 
	MOVLW       hi_addr(_readGPS+0)
	ADDWFC      R1, 0 
	MOVWF       FSR0H 
	MOVF        POSTINC0+0, 0 
	XORLW       13
	BTFSS       STATUS+0, 2 
	GOTO        L_interrupt3
	MOVLW       1
	SUBWF       _indGPS+0, 0 
	MOVWF       R0 
	MOVLW       0
	SUBWFB      _indGPS+1, 0 
	MOVWF       R1 
	MOVLW       _readGPS+0
	ADDWF       R0, 0 
	MOVWF       FSR0 
	MOVLW       hi_addr(_readGPS+0)
	ADDWFC      R1, 0 
	MOVWF       FSR0H 
	MOVF        POSTINC0+0, 0 
	XORLW       10
	BTFSS       STATUS+0, 2 
	GOTO        L_interrupt3
L__interrupt116:
;Button.c,69 :: 		while(plaka[CNTforConcatanate]!='\0')
L_interrupt4:
	MOVLW       _plaka+0
	MOVWF       FSR0 
	MOVLW       hi_addr(_plaka+0)
	MOVWF       FSR0H 
	MOVF        _CNTforConcatanate+0, 0 
	ADDWF       FSR0, 1 
	MOVLW       0
	BTFSC       _CNTforConcatanate+0, 7 
	MOVLW       255
	ADDWFC      FSR0H, 1 
	MOVF        POSTINC0+0, 0 
	XORLW       0
	BTFSC       STATUS+0, 2 
	GOTO        L_interrupt5
;Button.c,71 :: 		readGPS[indGPS-2] = plaka[CNTforConcatanate];
	MOVLW       2
	SUBWF       _indGPS+0, 0 
	MOVWF       R0 
	MOVLW       0
	SUBWFB      _indGPS+1, 0 
	MOVWF       R1 
	MOVLW       _readGPS+0
	ADDWF       R0, 0 
	MOVWF       FSR1 
	MOVLW       hi_addr(_readGPS+0)
	ADDWFC      R1, 0 
	MOVWF       FSR1H 
	MOVLW       _plaka+0
	MOVWF       FSR0 
	MOVLW       hi_addr(_plaka+0)
	MOVWF       FSR0H 
	MOVF        _CNTforConcatanate+0, 0 
	ADDWF       FSR0, 1 
	MOVLW       0
	BTFSC       _CNTforConcatanate+0, 7 
	MOVLW       255
	ADDWFC      FSR0H, 1 
	MOVF        POSTINC0+0, 0 
	MOVWF       POSTINC1+0 
;Button.c,72 :: 		CNTforConcatanate = CNTforConcatanate + 1;
	INCF        _CNTforConcatanate+0, 1 
;Button.c,73 :: 		indGPS = indGPS + 1;
	INFSNZ      _indGPS+0, 1 
	INCF        _indGPS+1, 1 
;Button.c,74 :: 		readGPS[indGPS]='\0';
	MOVLW       _readGPS+0
	ADDWF       _indGPS+0, 0 
	MOVWF       FSR1 
	MOVLW       hi_addr(_readGPS+0)
	ADDWFC      _indGPS+1, 0 
	MOVWF       FSR1H 
	CLRF        POSTINC1+0 
;Button.c,75 :: 		}
	GOTO        L_interrupt4
L_interrupt5:
;Button.c,76 :: 		indGPS = 2;
	MOVLW       2
	MOVWF       _indGPS+0 
	MOVLW       0
	MOVWF       _indGPS+1 
;Button.c,77 :: 		CNTforConcatanate = 0;
	CLRF        _CNTforConcatanate+0 
;Button.c,78 :: 		FlagforGPSData = 1;
	MOVLW       1
	MOVWF       _FlagforGPSData+0 
;Button.c,79 :: 		}
L_interrupt3:
;Button.c,80 :: 		PIR3.RC2IF=0;
	BCF         PIR3+0, 5 
;Button.c,81 :: 		}
L_interrupt0:
;Button.c,83 :: 		if( PIR1.RC1IF )
	BTFSS       PIR1+0, 5 
	GOTO        L_interrupt6
;Button.c,85 :: 		read[ind] = UART1_Read();
	MOVLW       _read+0
	ADDWF       _ind+0, 0 
	MOVWF       FLOC__interrupt+0 
	MOVLW       hi_addr(_read+0)
	ADDWFC      _ind+1, 0 
	MOVWF       FLOC__interrupt+1 
	CALL        _UART1_Read+0, 0
	MOVFF       FLOC__interrupt+0, FSR1
	MOVFF       FLOC__interrupt+1, FSR1H
	MOVF        R0, 0 
	MOVWF       POSTINC1+0 
;Button.c,86 :: 		ind++;
	INFSNZ      _ind+0, 1 
	INCF        _ind+1, 1 
;Button.c,87 :: 		if(read[0]!='M' && read[1]!='C' && read[2]!='O' && read[3]!='N' && read[4]!='F' && read[ind-2]==13 && read[ind-1]==10)
	MOVF        _read+0, 0 
	XORLW       77
	BTFSC       STATUS+0, 2 
	GOTO        L_interrupt9
	MOVF        _read+1, 0 
	XORLW       67
	BTFSC       STATUS+0, 2 
	GOTO        L_interrupt9
	MOVF        _read+2, 0 
	XORLW       79
	BTFSC       STATUS+0, 2 
	GOTO        L_interrupt9
	MOVF        _read+3, 0 
	XORLW       78
	BTFSC       STATUS+0, 2 
	GOTO        L_interrupt9
	MOVF        _read+4, 0 
	XORLW       70
	BTFSC       STATUS+0, 2 
	GOTO        L_interrupt9
	MOVLW       2
	SUBWF       _ind+0, 0 
	MOVWF       R0 
	MOVLW       0
	SUBWFB      _ind+1, 0 
	MOVWF       R1 
	MOVLW       _read+0
	ADDWF       R0, 0 
	MOVWF       FSR0 
	MOVLW       hi_addr(_read+0)
	ADDWFC      R1, 0 
	MOVWF       FSR0H 
	MOVF        POSTINC0+0, 0 
	XORLW       13
	BTFSS       STATUS+0, 2 
	GOTO        L_interrupt9
	MOVLW       1
	SUBWF       _ind+0, 0 
	MOVWF       R0 
	MOVLW       0
	SUBWFB      _ind+1, 0 
	MOVWF       R1 
	MOVLW       _read+0
	ADDWF       R0, 0 
	MOVWF       FSR0 
	MOVLW       hi_addr(_read+0)
	ADDWFC      R1, 0 
	MOVWF       FSR0H 
	MOVF        POSTINC0+0, 0 
	XORLW       10
	BTFSS       STATUS+0, 2 
	GOTO        L_interrupt9
L__interrupt115:
;Button.c,89 :: 		read[ind-2]='\0';
	MOVLW       2
	SUBWF       _ind+0, 0 
	MOVWF       R0 
	MOVLW       0
	SUBWFB      _ind+1, 0 
	MOVWF       R1 
	MOVLW       _read+0
	ADDWF       R0, 0 
	MOVWF       FSR1 
	MOVLW       hi_addr(_read+0)
	ADDWFC      R1, 0 
	MOVWF       FSR1H 
	CLRF        POSTINC1+0 
;Button.c,90 :: 		ind = 0;
	CLRF        _ind+0 
	CLRF        _ind+1 
;Button.c,91 :: 		}
L_interrupt9:
;Button.c,92 :: 		if(read[0]=='M' && read[1]=='C' && read[2]=='O' && read[3]=='N' && read[4]=='F' && read[ind-2]==13 && read[ind-1]==10)
	MOVF        _read+0, 0 
	XORLW       77
	BTFSS       STATUS+0, 2 
	GOTO        L_interrupt12
	MOVF        _read+1, 0 
	XORLW       67
	BTFSS       STATUS+0, 2 
	GOTO        L_interrupt12
	MOVF        _read+2, 0 
	XORLW       79
	BTFSS       STATUS+0, 2 
	GOTO        L_interrupt12
	MOVF        _read+3, 0 
	XORLW       78
	BTFSS       STATUS+0, 2 
	GOTO        L_interrupt12
	MOVF        _read+4, 0 
	XORLW       70
	BTFSS       STATUS+0, 2 
	GOTO        L_interrupt12
	MOVLW       2
	SUBWF       _ind+0, 0 
	MOVWF       R0 
	MOVLW       0
	SUBWFB      _ind+1, 0 
	MOVWF       R1 
	MOVLW       _read+0
	ADDWF       R0, 0 
	MOVWF       FSR0 
	MOVLW       hi_addr(_read+0)
	ADDWFC      R1, 0 
	MOVWF       FSR0H 
	MOVF        POSTINC0+0, 0 
	XORLW       13
	BTFSS       STATUS+0, 2 
	GOTO        L_interrupt12
	MOVLW       1
	SUBWF       _ind+0, 0 
	MOVWF       R0 
	MOVLW       0
	SUBWFB      _ind+1, 0 
	MOVWF       R1 
	MOVLW       _read+0
	ADDWF       R0, 0 
	MOVWF       FSR0 
	MOVLW       hi_addr(_read+0)
	ADDWFC      R1, 0 
	MOVWF       FSR0H 
	MOVF        POSTINC0+0, 0 
	XORLW       10
	BTFSS       STATUS+0, 2 
	GOTO        L_interrupt12
L__interrupt114:
;Button.c,94 :: 		PORTB.F6 = 1;
	BSF         PORTB+0, 6 
;Button.c,95 :: 		read[ind-2] = '\0';
	MOVLW       2
	SUBWF       _ind+0, 0 
	MOVWF       R0 
	MOVLW       0
	SUBWFB      _ind+1, 0 
	MOVWF       R1 
	MOVLW       _read+0
	ADDWF       R0, 0 
	MOVWF       FSR1 
	MOVLW       hi_addr(_read+0)
	ADDWFC      R1, 0 
	MOVWF       FSR1H 
	CLRF        POSTINC1+0 
;Button.c,96 :: 		ind = 0;
	CLRF        _ind+0 
	CLRF        _ind+1 
;Button.c,97 :: 		Flag_For_EEPROM_CONFIG = 1;
	MOVLW       1
	MOVWF       _Flag_For_EEPROM_CONFIG+0 
;Button.c,98 :: 		}
L_interrupt12:
;Button.c,99 :: 		PIR1.RC1IF=0;
	BCF         PIR1+0, 5 
;Button.c,100 :: 		}
L_interrupt6:
;Button.c,101 :: 		}
L_end_interrupt:
L__interrupt131:
	RETFIE      1
; end of _interrupt

_send_atc:

;Button.c,103 :: 		void send_atc(char *s)
;Button.c,105 :: 		while(*s)
L_send_atc13:
	MOVFF       FARG_send_atc_s+0, FSR0
	MOVFF       FARG_send_atc_s+1, FSR0H
	MOVF        POSTINC0+0, 1 
	BTFSC       STATUS+0, 2 
	GOTO        L_send_atc14
;Button.c,107 :: 		UART1_Write(*s++);
	MOVFF       FARG_send_atc_s+0, FSR0
	MOVFF       FARG_send_atc_s+1, FSR0H
	MOVF        POSTINC0+0, 0 
	MOVWF       FARG_UART1_Write_data_+0 
	CALL        _UART1_Write+0, 0
	INFSNZ      FARG_send_atc_s+0, 1 
	INCF        FARG_send_atc_s+1, 1 
;Button.c,108 :: 		}
	GOTO        L_send_atc13
L_send_atc14:
;Button.c,109 :: 		UART1_Write(0x0D);
	MOVLW       13
	MOVWF       FARG_UART1_Write_data_+0 
	CALL        _UART1_Write+0, 0
;Button.c,110 :: 		delay_ms(1000);
	MOVLW       11
	MOVWF       R11, 0
	MOVLW       38
	MOVWF       R12, 0
	MOVLW       93
	MOVWF       R13, 0
L_send_atc15:
	DECFSZ      R13, 1, 1
	BRA         L_send_atc15
	DECFSZ      R12, 1, 1
	BRA         L_send_atc15
	DECFSZ      R11, 1, 1
	BRA         L_send_atc15
	NOP
	NOP
;Button.c,111 :: 		}
L_end_send_atc:
	RETURN      0
; end of _send_atc

_OK_Response_AT:

;Button.c,113 :: 		short OK_Response_AT(char *atc)
;Button.c,115 :: 		Lcd_Cmd(_LCD_CLEAR);
	MOVLW       1
	MOVWF       FARG_Lcd_Cmd_out_char+0 
	CALL        _Lcd_Cmd+0, 0
;Button.c,116 :: 		LCD_Out(1,1,atc);
	MOVLW       1
	MOVWF       FARG_Lcd_Out_row+0 
	MOVLW       1
	MOVWF       FARG_Lcd_Out_column+0 
	MOVF        FARG_OK_Response_AT_atc+0, 0 
	MOVWF       FARG_Lcd_Out_text+0 
	MOVF        FARG_OK_Response_AT_atc+1, 0 
	MOVWF       FARG_Lcd_Out_text+1 
	CALL        _Lcd_Out+0, 0
;Button.c,117 :: 		send_atc(atc);
	MOVF        FARG_OK_Response_AT_atc+0, 0 
	MOVWF       FARG_send_atc_s+0 
	MOVF        FARG_OK_Response_AT_atc+1, 0 
	MOVWF       FARG_send_atc_s+1 
	CALL        _send_atc+0, 0
;Button.c,118 :: 		LCD_Out(2,1,read);
	MOVLW       2
	MOVWF       FARG_Lcd_Out_row+0 
	MOVLW       1
	MOVWF       FARG_Lcd_Out_column+0 
	MOVLW       _read+0
	MOVWF       FARG_Lcd_Out_text+0 
	MOVLW       hi_addr(_read+0)
	MOVWF       FARG_Lcd_Out_text+1 
	CALL        _Lcd_Out+0, 0
;Button.c,119 :: 		while(1)
L_OK_Response_AT16:
;Button.c,121 :: 		if(read[0] == 'E' && read[1] == 'R' && read[2] == 'R' && read[3] == 'O' && read[4] == 'R')
	MOVF        _read+0, 0 
	XORLW       69
	BTFSS       STATUS+0, 2 
	GOTO        L_OK_Response_AT20
	MOVF        _read+1, 0 
	XORLW       82
	BTFSS       STATUS+0, 2 
	GOTO        L_OK_Response_AT20
	MOVF        _read+2, 0 
	XORLW       82
	BTFSS       STATUS+0, 2 
	GOTO        L_OK_Response_AT20
	MOVF        _read+3, 0 
	XORLW       79
	BTFSS       STATUS+0, 2 
	GOTO        L_OK_Response_AT20
	MOVF        _read+4, 0 
	XORLW       82
	BTFSS       STATUS+0, 2 
	GOTO        L_OK_Response_AT20
L__OK_Response_AT120:
;Button.c,123 :: 		send_atc(atc);
	MOVF        FARG_OK_Response_AT_atc+0, 0 
	MOVWF       FARG_send_atc_s+0 
	MOVF        FARG_OK_Response_AT_atc+1, 0 
	MOVWF       FARG_send_atc_s+1 
	CALL        _send_atc+0, 0
;Button.c,124 :: 		LCD_Out(1,1,atc);
	MOVLW       1
	MOVWF       FARG_Lcd_Out_row+0 
	MOVLW       1
	MOVWF       FARG_Lcd_Out_column+0 
	MOVF        FARG_OK_Response_AT_atc+0, 0 
	MOVWF       FARG_Lcd_Out_text+0 
	MOVF        FARG_OK_Response_AT_atc+1, 0 
	MOVWF       FARG_Lcd_Out_text+1 
	CALL        _Lcd_Out+0, 0
;Button.c,125 :: 		LCD_Out(2,1,read);
	MOVLW       2
	MOVWF       FARG_Lcd_Out_row+0 
	MOVLW       1
	MOVWF       FARG_Lcd_Out_column+0 
	MOVLW       _read+0
	MOVWF       FARG_Lcd_Out_text+0 
	MOVLW       hi_addr(_read+0)
	MOVWF       FARG_Lcd_Out_text+1 
	CALL        _Lcd_Out+0, 0
;Button.c,126 :: 		Delay_ms(200);
	MOVLW       3
	MOVWF       R11, 0
	MOVLW       8
	MOVWF       R12, 0
	MOVLW       119
	MOVWF       R13, 0
L_OK_Response_AT21:
	DECFSZ      R13, 1, 1
	BRA         L_OK_Response_AT21
	DECFSZ      R12, 1, 1
	BRA         L_OK_Response_AT21
	DECFSZ      R11, 1, 1
	BRA         L_OK_Response_AT21
;Button.c,127 :: 		Lcd_Cmd(_LCD_CLEAR);
	MOVLW       1
	MOVWF       FARG_Lcd_Cmd_out_char+0 
	CALL        _Lcd_Cmd+0, 0
;Button.c,128 :: 		LCD_Out(1,1,"ERROR!");
	MOVLW       1
	MOVWF       FARG_Lcd_Out_row+0 
	MOVLW       1
	MOVWF       FARG_Lcd_Out_column+0 
	MOVLW       ?lstr1_Button+0
	MOVWF       FARG_Lcd_Out_text+0 
	MOVLW       hi_addr(?lstr1_Button+0)
	MOVWF       FARG_Lcd_Out_text+1 
	CALL        _Lcd_Out+0, 0
;Button.c,129 :: 		error_counter = error_counter+1;
	INCF        _error_counter+0, 1 
;Button.c,130 :: 		if(error_counter == 5)
	MOVF        _error_counter+0, 0 
	XORLW       5
	BTFSS       STATUS+0, 2 
	GOTO        L_OK_Response_AT22
;Button.c,132 :: 		error_counter = 0;
	CLRF        _error_counter+0 
;Button.c,133 :: 		return 1;
	MOVLW       1
	MOVWF       R0 
	GOTO        L_end_OK_Response_AT
;Button.c,134 :: 		}
L_OK_Response_AT22:
;Button.c,135 :: 		}
L_OK_Response_AT20:
;Button.c,137 :: 		if(read[0] == 'N' && read[1] == 'O' && read[2] == ' ' && read[3] == 'C' && read[4] == 'A'
	MOVF        _read+0, 0 
	XORLW       78
	BTFSS       STATUS+0, 2 
	GOTO        L_OK_Response_AT25
	MOVF        _read+1, 0 
	XORLW       79
	BTFSS       STATUS+0, 2 
	GOTO        L_OK_Response_AT25
	MOVF        _read+2, 0 
	XORLW       32
	BTFSS       STATUS+0, 2 
	GOTO        L_OK_Response_AT25
	MOVF        _read+3, 0 
	XORLW       67
	BTFSS       STATUS+0, 2 
	GOTO        L_OK_Response_AT25
	MOVF        _read+4, 0 
	XORLW       65
	BTFSS       STATUS+0, 2 
	GOTO        L_OK_Response_AT25
;Button.c,138 :: 		&& read[5] == 'R' && read[6] == 'R' && read[7] == 'I' && read[8] == 'E' && read[9] == 'R')
	MOVF        _read+5, 0 
	XORLW       82
	BTFSS       STATUS+0, 2 
	GOTO        L_OK_Response_AT25
	MOVF        _read+6, 0 
	XORLW       82
	BTFSS       STATUS+0, 2 
	GOTO        L_OK_Response_AT25
	MOVF        _read+7, 0 
	XORLW       73
	BTFSS       STATUS+0, 2 
	GOTO        L_OK_Response_AT25
	MOVF        _read+8, 0 
	XORLW       69
	BTFSS       STATUS+0, 2 
	GOTO        L_OK_Response_AT25
	MOVF        _read+9, 0 
	XORLW       82
	BTFSS       STATUS+0, 2 
	GOTO        L_OK_Response_AT25
L__OK_Response_AT119:
;Button.c,140 :: 		LCD_Out(1,1,atc);
	MOVLW       1
	MOVWF       FARG_Lcd_Out_row+0 
	MOVLW       1
	MOVWF       FARG_Lcd_Out_column+0 
	MOVF        FARG_OK_Response_AT_atc+0, 0 
	MOVWF       FARG_Lcd_Out_text+0 
	MOVF        FARG_OK_Response_AT_atc+1, 0 
	MOVWF       FARG_Lcd_Out_text+1 
	CALL        _Lcd_Out+0, 0
;Button.c,141 :: 		LCD_Out(2,1,read);
	MOVLW       2
	MOVWF       FARG_Lcd_Out_row+0 
	MOVLW       1
	MOVWF       FARG_Lcd_Out_column+0 
	MOVLW       _read+0
	MOVWF       FARG_Lcd_Out_text+0 
	MOVLW       hi_addr(_read+0)
	MOVWF       FARG_Lcd_Out_text+1 
	CALL        _Lcd_Out+0, 0
;Button.c,142 :: 		Lcd_Cmd(_LCD_CLEAR);
	MOVLW       1
	MOVWF       FARG_Lcd_Cmd_out_char+0 
	CALL        _Lcd_Cmd+0, 0
;Button.c,143 :: 		LCD_Out(1,1,"NO CARRIER!");
	MOVLW       1
	MOVWF       FARG_Lcd_Out_row+0 
	MOVLW       1
	MOVWF       FARG_Lcd_Out_column+0 
	MOVLW       ?lstr2_Button+0
	MOVWF       FARG_Lcd_Out_text+0 
	MOVLW       hi_addr(?lstr2_Button+0)
	MOVWF       FARG_Lcd_Out_text+1 
	CALL        _Lcd_Out+0, 0
;Button.c,144 :: 		Delay_ms(5000);
	MOVLW       51
	MOVWF       R11, 0
	MOVLW       187
	MOVWF       R12, 0
	MOVLW       223
	MOVWF       R13, 0
L_OK_Response_AT26:
	DECFSZ      R13, 1, 1
	BRA         L_OK_Response_AT26
	DECFSZ      R12, 1, 1
	BRA         L_OK_Response_AT26
	DECFSZ      R11, 1, 1
	BRA         L_OK_Response_AT26
	NOP
	NOP
;Button.c,145 :: 		Lcd_Cmd(_LCD_CLEAR);
	MOVLW       1
	MOVWF       FARG_Lcd_Cmd_out_char+0 
	CALL        _Lcd_Cmd+0, 0
;Button.c,146 :: 		read[0] = '\0';
	CLRF        _read+0 
;Button.c,147 :: 		return 1;
	MOVLW       1
	MOVWF       R0 
	GOTO        L_end_OK_Response_AT
;Button.c,148 :: 		}
L_OK_Response_AT25:
;Button.c,150 :: 		if(read[0] == 'O' && read[1] == 'K')
	MOVF        _read+0, 0 
	XORLW       79
	BTFSS       STATUS+0, 2 
	GOTO        L_OK_Response_AT29
	MOVF        _read+1, 0 
	XORLW       75
	BTFSS       STATUS+0, 2 
	GOTO        L_OK_Response_AT29
L__OK_Response_AT118:
;Button.c,152 :: 		LCD_Out(2,1,read);
	MOVLW       2
	MOVWF       FARG_Lcd_Out_row+0 
	MOVLW       1
	MOVWF       FARG_Lcd_Out_column+0 
	MOVLW       _read+0
	MOVWF       FARG_Lcd_Out_text+0 
	MOVLW       hi_addr(_read+0)
	MOVWF       FARG_Lcd_Out_text+1 
	CALL        _Lcd_Out+0, 0
;Button.c,153 :: 		Delay_ms(200);
	MOVLW       3
	MOVWF       R11, 0
	MOVLW       8
	MOVWF       R12, 0
	MOVLW       119
	MOVWF       R13, 0
L_OK_Response_AT30:
	DECFSZ      R13, 1, 1
	BRA         L_OK_Response_AT30
	DECFSZ      R12, 1, 1
	BRA         L_OK_Response_AT30
	DECFSZ      R11, 1, 1
	BRA         L_OK_Response_AT30
;Button.c,154 :: 		Lcd_Cmd(_LCD_CLEAR);
	MOVLW       1
	MOVWF       FARG_Lcd_Cmd_out_char+0 
	CALL        _Lcd_Cmd+0, 0
;Button.c,155 :: 		LCD_Out(1,1,"OK!");
	MOVLW       1
	MOVWF       FARG_Lcd_Out_row+0 
	MOVLW       1
	MOVWF       FARG_Lcd_Out_column+0 
	MOVLW       ?lstr3_Button+0
	MOVWF       FARG_Lcd_Out_text+0 
	MOVLW       hi_addr(?lstr3_Button+0)
	MOVWF       FARG_Lcd_Out_text+1 
	CALL        _Lcd_Out+0, 0
;Button.c,156 :: 		read[0] = '\0';
	CLRF        _read+0 
;Button.c,157 :: 		ind = 0;
	CLRF        _ind+0 
	CLRF        _ind+1 
;Button.c,158 :: 		return 0;
	CLRF        R0 
	GOTO        L_end_OK_Response_AT
;Button.c,159 :: 		}
L_OK_Response_AT29:
;Button.c,161 :: 		if(read[0] == 'C' && read[1] == 'O' && read[2] == 'N' && read[3] == 'N'
	MOVF        _read+0, 0 
	XORLW       67
	BTFSS       STATUS+0, 2 
	GOTO        L_OK_Response_AT33
	MOVF        _read+1, 0 
	XORLW       79
	BTFSS       STATUS+0, 2 
	GOTO        L_OK_Response_AT33
	MOVF        _read+2, 0 
	XORLW       78
	BTFSS       STATUS+0, 2 
	GOTO        L_OK_Response_AT33
	MOVF        _read+3, 0 
	XORLW       78
	BTFSS       STATUS+0, 2 
	GOTO        L_OK_Response_AT33
;Button.c,162 :: 		&& read[4] == 'E' && read[5] == 'C' && read[6] == 'T')
	MOVF        _read+4, 0 
	XORLW       69
	BTFSS       STATUS+0, 2 
	GOTO        L_OK_Response_AT33
	MOVF        _read+5, 0 
	XORLW       67
	BTFSS       STATUS+0, 2 
	GOTO        L_OK_Response_AT33
	MOVF        _read+6, 0 
	XORLW       84
	BTFSS       STATUS+0, 2 
	GOTO        L_OK_Response_AT33
L__OK_Response_AT117:
;Button.c,164 :: 		LCD_Out(2,1,read);
	MOVLW       2
	MOVWF       FARG_Lcd_Out_row+0 
	MOVLW       1
	MOVWF       FARG_Lcd_Out_column+0 
	MOVLW       _read+0
	MOVWF       FARG_Lcd_Out_text+0 
	MOVLW       hi_addr(_read+0)
	MOVWF       FARG_Lcd_Out_text+1 
	CALL        _Lcd_Out+0, 0
;Button.c,165 :: 		Delay_ms(200);
	MOVLW       3
	MOVWF       R11, 0
	MOVLW       8
	MOVWF       R12, 0
	MOVLW       119
	MOVWF       R13, 0
L_OK_Response_AT34:
	DECFSZ      R13, 1, 1
	BRA         L_OK_Response_AT34
	DECFSZ      R12, 1, 1
	BRA         L_OK_Response_AT34
	DECFSZ      R11, 1, 1
	BRA         L_OK_Response_AT34
;Button.c,166 :: 		Lcd_Cmd(_LCD_CLEAR);
	MOVLW       1
	MOVWF       FARG_Lcd_Cmd_out_char+0 
	CALL        _Lcd_Cmd+0, 0
;Button.c,167 :: 		LCD_Out(1,1,"CONNECTED!");
	MOVLW       1
	MOVWF       FARG_Lcd_Out_row+0 
	MOVLW       1
	MOVWF       FARG_Lcd_Out_column+0 
	MOVLW       ?lstr4_Button+0
	MOVWF       FARG_Lcd_Out_text+0 
	MOVLW       hi_addr(?lstr4_Button+0)
	MOVWF       FARG_Lcd_Out_text+1 
	CALL        _Lcd_Out+0, 0
;Button.c,168 :: 		read[0] = '\0';
	CLRF        _read+0 
;Button.c,169 :: 		ind = 0;
	CLRF        _ind+0 
	CLRF        _ind+1 
;Button.c,170 :: 		return 0;
	CLRF        R0 
	GOTO        L_end_OK_Response_AT
;Button.c,171 :: 		}
L_OK_Response_AT33:
;Button.c,172 :: 		}
	GOTO        L_OK_Response_AT16
;Button.c,173 :: 		}
L_end_OK_Response_AT:
	RETURN      0
; end of _OK_Response_AT

_port_init:

;Button.c,175 :: 		void port_init()
;Button.c,177 :: 		ANSELC = 0;
	CLRF        ANSELC+0 
;Button.c,178 :: 		ANSELD = 0;
	CLRF        ANSELD+0 
;Button.c,179 :: 		PORTB = 0;
	CLRF        PORTB+0 
;Button.c,180 :: 		TRISB = 3;
	MOVLW       3
	MOVWF       TRISB+0 
;Button.c,181 :: 		PORTD = 0;
	CLRF        PORTD+0 
;Button.c,182 :: 		}
L_end_port_init:
	RETURN      0
; end of _port_init

_interrupt_init:

;Button.c,184 :: 		void interrupt_init()
;Button.c,186 :: 		INTCON.GIE = 1;
	BSF         INTCON+0, 7 
;Button.c,187 :: 		INTCON.PEIE = 1;
	BSF         INTCON+0, 6 
;Button.c,188 :: 		PIE1.RC1IE = 1;
	BSF         PIE1+0, 5 
;Button.c,189 :: 		PIE1.TX1IE = 0;
	BCF         PIE1+0, 4 
;Button.c,190 :: 		PIE3.RC2IE = 1;
	BSF         PIE3+0, 5 
;Button.c,191 :: 		Delay_ms(100);
	MOVLW       2
	MOVWF       R11, 0
	MOVLW       4
	MOVWF       R12, 0
	MOVLW       186
	MOVWF       R13, 0
L_interrupt_init35:
	DECFSZ      R13, 1, 1
	BRA         L_interrupt_init35
	DECFSZ      R12, 1, 1
	BRA         L_interrupt_init35
	DECFSZ      R11, 1, 1
	BRA         L_interrupt_init35
	NOP
;Button.c,192 :: 		}
L_end_interrupt_init:
	RETURN      0
; end of _interrupt_init

_LCD_init_:

;Button.c,194 :: 		void LCD_init_()
;Button.c,196 :: 		Delay_ms(100);
	MOVLW       2
	MOVWF       R11, 0
	MOVLW       4
	MOVWF       R12, 0
	MOVLW       186
	MOVWF       R13, 0
L_LCD_init_36:
	DECFSZ      R13, 1, 1
	BRA         L_LCD_init_36
	DECFSZ      R12, 1, 1
	BRA         L_LCD_init_36
	DECFSZ      R11, 1, 1
	BRA         L_LCD_init_36
	NOP
;Button.c,197 :: 		Lcd_Init();
	CALL        _Lcd_Init+0, 0
;Button.c,198 :: 		Lcd_Cmd(_LCD_CLEAR);
	MOVLW       1
	MOVWF       FARG_Lcd_Cmd_out_char+0 
	CALL        _Lcd_Cmd+0, 0
;Button.c,199 :: 		Lcd_Cmd(_LCD_CURSOR_OFF);
	MOVLW       12
	MOVWF       FARG_Lcd_Cmd_out_char+0 
	CALL        _Lcd_Cmd+0, 0
;Button.c,200 :: 		Delay_ms(100);
	MOVLW       2
	MOVWF       R11, 0
	MOVLW       4
	MOVWF       R12, 0
	MOVLW       186
	MOVWF       R13, 0
L_LCD_init_37:
	DECFSZ      R13, 1, 1
	BRA         L_LCD_init_37
	DECFSZ      R12, 1, 1
	BRA         L_LCD_init_37
	DECFSZ      R11, 1, 1
	BRA         L_LCD_init_37
	NOP
;Button.c,201 :: 		}
L_end_LCD_init_:
	RETURN      0
; end of _LCD_init_

_UART_init:

;Button.c,203 :: 		void UART_init()
;Button.c,205 :: 		UART1_Init(19200);
	BSF         BAUDCON+0, 3, 0
	CLRF        SPBRGH+0 
	MOVLW       103
	MOVWF       SPBRG+0 
	BSF         TXSTA+0, 2, 0
	CALL        _UART1_Init+0, 0
;Button.c,206 :: 		delay_ms(100);
	MOVLW       2
	MOVWF       R11, 0
	MOVLW       4
	MOVWF       R12, 0
	MOVLW       186
	MOVWF       R13, 0
L_UART_init38:
	DECFSZ      R13, 1, 1
	BRA         L_UART_init38
	DECFSZ      R12, 1, 1
	BRA         L_UART_init38
	DECFSZ      R11, 1, 1
	BRA         L_UART_init38
	NOP
;Button.c,207 :: 		UART2_Init(4800);
	BSF         BAUDCON2+0, 3, 0
	MOVLW       1
	MOVWF       SPBRGH2+0 
	MOVLW       160
	MOVWF       SPBRG2+0 
	BSF         TXSTA2+0, 2, 0
	CALL        _UART2_Init+0, 0
;Button.c,208 :: 		delay_ms(1000);
	MOVLW       11
	MOVWF       R11, 0
	MOVLW       38
	MOVWF       R12, 0
	MOVLW       93
	MOVWF       R13, 0
L_UART_init39:
	DECFSZ      R13, 1, 1
	BRA         L_UART_init39
	DECFSZ      R12, 1, 1
	BRA         L_UART_init39
	DECFSZ      R11, 1, 1
	BRA         L_UART_init39
	NOP
	NOP
;Button.c,209 :: 		}
L_end_UART_init:
	RETURN      0
; end of _UART_init

_main:

;Button.c,211 :: 		void main()
;Button.c,213 :: 		port_init();
	CALL        _port_init+0, 0
;Button.c,215 :: 		interrupt_init();
	CALL        _interrupt_init+0, 0
;Button.c,217 :: 		LCD_init_();
	CALL        _LCD_init_+0, 0
;Button.c,219 :: 		UART_init();
	CALL        _UART_init+0, 0
;Button.c,221 :: 		while(PORTB.F7 == 1)
L_main40:
	BTFSS       PORTB+0, 7 
	GOTO        L_main41
;Button.c,223 :: 		if(Flag_For_EEPROM_CONFIG == 1)
	MOVF        _Flag_For_EEPROM_CONFIG+0, 0 
	XORLW       1
	BTFSS       STATUS+0, 2 
	GOTO        L_main42
;Button.c,225 :: 		while(read[eeprom_ind+5] != '\0')
L_main43:
	MOVLW       5
	ADDWF       _eeprom_ind+0, 0 
	MOVWF       R0 
	MOVLW       0
	ADDWFC      _eeprom_ind+1, 0 
	MOVWF       R1 
	MOVLW       _read+0
	ADDWF       R0, 0 
	MOVWF       FSR0 
	MOVLW       hi_addr(_read+0)
	ADDWFC      R1, 0 
	MOVWF       FSR0H 
	MOVF        POSTINC0+0, 0 
	XORLW       0
	BTFSC       STATUS+0, 2 
	GOTO        L_main44
;Button.c,227 :: 		EEPROM_Write(eeprom_ind, read[eeprom_ind+5]);
	MOVF        _eeprom_ind+0, 0 
	MOVWF       FARG_EEPROM_Write_address+0 
	MOVF        _eeprom_ind+1, 0 
	MOVWF       FARG_EEPROM_Write_address+1 
	MOVLW       5
	ADDWF       _eeprom_ind+0, 0 
	MOVWF       R0 
	MOVLW       0
	ADDWFC      _eeprom_ind+1, 0 
	MOVWF       R1 
	MOVLW       _read+0
	ADDWF       R0, 0 
	MOVWF       FSR0 
	MOVLW       hi_addr(_read+0)
	ADDWFC      R1, 0 
	MOVWF       FSR0H 
	MOVF        POSTINC0+0, 0 
	MOVWF       FARG_EEPROM_Write_data_+0 
	CALL        _EEPROM_Write+0, 0
;Button.c,228 :: 		eeprom_ind++;
	INFSNZ      _eeprom_ind+0, 1 
	INCF        _eeprom_ind+1, 1 
;Button.c,229 :: 		EEPROM_Write(eeprom_ind, '\0');
	MOVF        _eeprom_ind+0, 0 
	MOVWF       FARG_EEPROM_Write_address+0 
	MOVF        _eeprom_ind+1, 0 
	MOVWF       FARG_EEPROM_Write_address+1 
	CLRF        FARG_EEPROM_Write_data_+0 
	CALL        _EEPROM_Write+0, 0
;Button.c,230 :: 		}
	GOTO        L_main43
L_main44:
;Button.c,231 :: 		}
L_main42:
;Button.c,232 :: 		}
	GOTO        L_main40
L_main41:
;Button.c,234 :: 		while(PORTB.F7 == 0)
	BTFSC       PORTB+0, 7 
	GOTO        L_main46
;Button.c,236 :: 		while(EEPROM_Read(tr) != '\0')
L_main47:
	MOVF        _tr+0, 0 
	MOVWF       FARG_EEPROM_Read_address+0 
	MOVF        _tr+1, 0 
	MOVWF       FARG_EEPROM_Read_address+1 
	CALL        _EEPROM_Read+0, 0
	MOVF        R0, 0 
	XORLW       0
	BTFSC       STATUS+0, 2 
	GOTO        L_main48
;Button.c,238 :: 		if(EEPROM_Read(tr) != '~' && f1 == 1)  //CGDCONT
	MOVF        _tr+0, 0 
	MOVWF       FARG_EEPROM_Read_address+0 
	MOVF        _tr+1, 0 
	MOVWF       FARG_EEPROM_Read_address+1 
	CALL        _EEPROM_Read+0, 0
	MOVF        R0, 0 
	XORLW       126
	BTFSC       STATUS+0, 2 
	GOTO        L_main51
	MOVF        _f1+0, 0 
	XORLW       1
	BTFSS       STATUS+0, 2 
	GOTO        L_main51
L__main129:
;Button.c,240 :: 		atc3[tr1] = EEPROM_Read(tr);
	MOVLW       _atc3+0
	ADDWF       _tr1+0, 0 
	MOVWF       FLOC__main+0 
	MOVLW       hi_addr(_atc3+0)
	ADDWFC      _tr1+1, 0 
	MOVWF       FLOC__main+1 
	MOVF        _tr+0, 0 
	MOVWF       FARG_EEPROM_Read_address+0 
	MOVF        _tr+1, 0 
	MOVWF       FARG_EEPROM_Read_address+1 
	CALL        _EEPROM_Read+0, 0
	MOVFF       FLOC__main+0, FSR1
	MOVFF       FLOC__main+1, FSR1H
	MOVF        R0, 0 
	MOVWF       POSTINC1+0 
;Button.c,241 :: 		atc3[tr1+1] = '\0';
	MOVLW       1
	ADDWF       _tr1+0, 0 
	MOVWF       R0 
	MOVLW       0
	ADDWFC      _tr1+1, 0 
	MOVWF       R1 
	MOVLW       _atc3+0
	ADDWF       R0, 0 
	MOVWF       FSR1 
	MOVLW       hi_addr(_atc3+0)
	ADDWFC      R1, 0 
	MOVWF       FSR1H 
	CLRF        POSTINC1+0 
;Button.c,242 :: 		f2=0,f3=0,f4=0,f5=0,f6=0;
	CLRF        _f2+0 
	CLRF        _f3+0 
	CLRF        _f4+0 
	CLRF        _f5+0 
	CLRF        _f6+0 
;Button.c,243 :: 		tr1 = tr1 + 1;
	INFSNZ      _tr1+0, 1 
	INCF        _tr1+1, 1 
;Button.c,244 :: 		if(EEPROM_Read(tr+1) == '~')
	MOVLW       1
	ADDWF       _tr+0, 0 
	MOVWF       FARG_EEPROM_Read_address+0 
	MOVLW       0
	ADDWFC      _tr+1, 0 
	MOVWF       FARG_EEPROM_Read_address+1 
	CALL        _EEPROM_Read+0, 0
	MOVF        R0, 0 
	XORLW       126
	BTFSS       STATUS+0, 2 
	GOTO        L_main52
;Button.c,245 :: 		f1=0,f2=1;
	CLRF        _f1+0 
	MOVLW       1
	MOVWF       _f2+0 
L_main52:
;Button.c,246 :: 		}
	GOTO        L_main53
L_main51:
;Button.c,248 :: 		else if(EEPROM_Read(tr) != '~' && f2 == 1)  //FTPOPEN
	MOVF        _tr+0, 0 
	MOVWF       FARG_EEPROM_Read_address+0 
	MOVF        _tr+1, 0 
	MOVWF       FARG_EEPROM_Read_address+1 
	CALL        _EEPROM_Read+0, 0
	MOVF        R0, 0 
	XORLW       126
	BTFSC       STATUS+0, 2 
	GOTO        L_main56
	MOVF        _f2+0, 0 
	XORLW       1
	BTFSS       STATUS+0, 2 
	GOTO        L_main56
L__main128:
;Button.c,250 :: 		atc5[tr2] = EEPROM_Read(tr);
	MOVLW       _atc5+0
	ADDWF       _tr2+0, 0 
	MOVWF       FLOC__main+0 
	MOVLW       hi_addr(_atc5+0)
	ADDWFC      _tr2+1, 0 
	MOVWF       FLOC__main+1 
	MOVF        _tr+0, 0 
	MOVWF       FARG_EEPROM_Read_address+0 
	MOVF        _tr+1, 0 
	MOVWF       FARG_EEPROM_Read_address+1 
	CALL        _EEPROM_Read+0, 0
	MOVFF       FLOC__main+0, FSR1
	MOVFF       FLOC__main+1, FSR1H
	MOVF        R0, 0 
	MOVWF       POSTINC1+0 
;Button.c,251 :: 		atc5[tr2+1] = '\0';
	MOVLW       1
	ADDWF       _tr2+0, 0 
	MOVWF       R0 
	MOVLW       0
	ADDWFC      _tr2+1, 0 
	MOVWF       R1 
	MOVLW       _atc5+0
	ADDWF       R0, 0 
	MOVWF       FSR1 
	MOVLW       hi_addr(_atc5+0)
	ADDWFC      R1, 0 
	MOVWF       FSR1H 
	CLRF        POSTINC1+0 
;Button.c,252 :: 		f1=0,f3=0,f4=0,f5=0,f6=0;
	CLRF        _f1+0 
	CLRF        _f3+0 
	CLRF        _f4+0 
	CLRF        _f5+0 
	CLRF        _f6+0 
;Button.c,253 :: 		tr2 = tr2 + 1;
	INFSNZ      _tr2+0, 1 
	INCF        _tr2+1, 1 
;Button.c,254 :: 		if(EEPROM_Read(tr+1) == '~')
	MOVLW       1
	ADDWF       _tr+0, 0 
	MOVWF       FARG_EEPROM_Read_address+0 
	MOVLW       0
	ADDWFC      _tr+1, 0 
	MOVWF       FARG_EEPROM_Read_address+1 
	CALL        _EEPROM_Read+0, 0
	MOVF        R0, 0 
	XORLW       126
	BTFSS       STATUS+0, 2 
	GOTO        L_main57
;Button.c,255 :: 		f2=0,f3=1;
	CLRF        _f2+0 
	MOVLW       1
	MOVWF       _f3+0 
L_main57:
;Button.c,256 :: 		}
	GOTO        L_main58
L_main56:
;Button.c,258 :: 		else if(EEPROM_Read(tr) != '~' && f3 == 1) //FTPPUT
	MOVF        _tr+0, 0 
	MOVWF       FARG_EEPROM_Read_address+0 
	MOVF        _tr+1, 0 
	MOVWF       FARG_EEPROM_Read_address+1 
	CALL        _EEPROM_Read+0, 0
	MOVF        R0, 0 
	XORLW       126
	BTFSC       STATUS+0, 2 
	GOTO        L_main61
	MOVF        _f3+0, 0 
	XORLW       1
	BTFSS       STATUS+0, 2 
	GOTO        L_main61
L__main127:
;Button.c,260 :: 		atc8[tr3] = EEPROM_Read(tr);
	MOVLW       _atc8+0
	ADDWF       _tr3+0, 0 
	MOVWF       FLOC__main+0 
	MOVLW       hi_addr(_atc8+0)
	ADDWFC      _tr3+1, 0 
	MOVWF       FLOC__main+1 
	MOVF        _tr+0, 0 
	MOVWF       FARG_EEPROM_Read_address+0 
	MOVF        _tr+1, 0 
	MOVWF       FARG_EEPROM_Read_address+1 
	CALL        _EEPROM_Read+0, 0
	MOVFF       FLOC__main+0, FSR1
	MOVFF       FLOC__main+1, FSR1H
	MOVF        R0, 0 
	MOVWF       POSTINC1+0 
;Button.c,261 :: 		atc8[tr3] = '\0';
	MOVLW       _atc8+0
	ADDWF       _tr3+0, 0 
	MOVWF       FSR1 
	MOVLW       hi_addr(_atc8+0)
	ADDWFC      _tr3+1, 0 
	MOVWF       FSR1H 
	CLRF        POSTINC1+0 
;Button.c,262 :: 		f1=0,f2=0,f4=0,f5=0,f6=0;
	CLRF        _f1+0 
	CLRF        _f2+0 
	CLRF        _f4+0 
	CLRF        _f5+0 
	CLRF        _f6+0 
;Button.c,263 :: 		tr3 = tr3 + 1;
	INFSNZ      _tr3+0, 1 
	INCF        _tr3+1, 1 
;Button.c,264 :: 		if(EEPROM_Read(tr+1) == '~')
	MOVLW       1
	ADDWF       _tr+0, 0 
	MOVWF       FARG_EEPROM_Read_address+0 
	MOVLW       0
	ADDWFC      _tr+1, 0 
	MOVWF       FARG_EEPROM_Read_address+1 
	CALL        _EEPROM_Read+0, 0
	MOVF        R0, 0 
	XORLW       126
	BTFSS       STATUS+0, 2 
	GOTO        L_main62
;Button.c,265 :: 		f3=0,f4=1;
	CLRF        _f3+0 
	MOVLW       1
	MOVWF       _f4+0 
L_main62:
;Button.c,266 :: 		}
	GOTO        L_main63
L_main61:
;Button.c,268 :: 		else if(EEPROM_Read(tr) != '~' && f4 == 1)  //FTPAPP
	MOVF        _tr+0, 0 
	MOVWF       FARG_EEPROM_Read_address+0 
	MOVF        _tr+1, 0 
	MOVWF       FARG_EEPROM_Read_address+1 
	CALL        _EEPROM_Read+0, 0
	MOVF        R0, 0 
	XORLW       126
	BTFSC       STATUS+0, 2 
	GOTO        L_main66
	MOVF        _f4+0, 0 
	XORLW       1
	BTFSS       STATUS+0, 2 
	GOTO        L_main66
L__main126:
;Button.c,270 :: 		atc10[tr4] = EEPROM_Read(tr);
	MOVLW       _atc10+0
	ADDWF       _tr4+0, 0 
	MOVWF       FLOC__main+0 
	MOVLW       hi_addr(_atc10+0)
	ADDWFC      _tr4+1, 0 
	MOVWF       FLOC__main+1 
	MOVF        _tr+0, 0 
	MOVWF       FARG_EEPROM_Read_address+0 
	MOVF        _tr+1, 0 
	MOVWF       FARG_EEPROM_Read_address+1 
	CALL        _EEPROM_Read+0, 0
	MOVFF       FLOC__main+0, FSR1
	MOVFF       FLOC__main+1, FSR1H
	MOVF        R0, 0 
	MOVWF       POSTINC1+0 
;Button.c,271 :: 		atc10[tr4+1] = '\0';
	MOVLW       1
	ADDWF       _tr4+0, 0 
	MOVWF       R0 
	MOVLW       0
	ADDWFC      _tr4+1, 0 
	MOVWF       R1 
	MOVLW       _atc10+0
	ADDWF       R0, 0 
	MOVWF       FSR1 
	MOVLW       hi_addr(_atc10+0)
	ADDWFC      R1, 0 
	MOVWF       FSR1H 
	CLRF        POSTINC1+0 
;Button.c,272 :: 		f1=0,f2=0,f3=0,f5=0,f6=0;
	CLRF        _f1+0 
	CLRF        _f2+0 
	CLRF        _f3+0 
	CLRF        _f5+0 
	CLRF        _f6+0 
;Button.c,273 :: 		tr4 = tr4 + 1;
	INFSNZ      _tr4+0, 1 
	INCF        _tr4+1, 1 
;Button.c,274 :: 		if(EEPROM_Read(tr+1) == '~')
	MOVLW       1
	ADDWF       _tr+0, 0 
	MOVWF       FARG_EEPROM_Read_address+0 
	MOVLW       0
	ADDWFC      _tr+1, 0 
	MOVWF       FARG_EEPROM_Read_address+1 
	CALL        _EEPROM_Read+0, 0
	MOVF        R0, 0 
	XORLW       126
	BTFSS       STATUS+0, 2 
	GOTO        L_main67
;Button.c,275 :: 		f4=0,f5=1;
	CLRF        _f4+0 
	MOVLW       1
	MOVWF       _f5+0 
L_main67:
;Button.c,276 :: 		}
	GOTO        L_main68
L_main66:
;Button.c,278 :: 		else if(EEPROM_Read(tr) != '~' && f5 == 1)  //SD
	MOVF        _tr+0, 0 
	MOVWF       FARG_EEPROM_Read_address+0 
	MOVF        _tr+1, 0 
	MOVWF       FARG_EEPROM_Read_address+1 
	CALL        _EEPROM_Read+0, 0
	MOVF        R0, 0 
	XORLW       126
	BTFSC       STATUS+0, 2 
	GOTO        L_main71
	MOVF        _f5+0, 0 
	XORLW       1
	BTFSS       STATUS+0, 2 
	GOTO        L_main71
L__main125:
;Button.c,280 :: 		atc17[tr5] = EEPROM_Read(tr);
	MOVLW       _atc17+0
	ADDWF       _tr5+0, 0 
	MOVWF       FLOC__main+0 
	MOVLW       hi_addr(_atc17+0)
	ADDWFC      _tr5+1, 0 
	MOVWF       FLOC__main+1 
	MOVF        _tr+0, 0 
	MOVWF       FARG_EEPROM_Read_address+0 
	MOVF        _tr+1, 0 
	MOVWF       FARG_EEPROM_Read_address+1 
	CALL        _EEPROM_Read+0, 0
	MOVFF       FLOC__main+0, FSR1
	MOVFF       FLOC__main+1, FSR1H
	MOVF        R0, 0 
	MOVWF       POSTINC1+0 
;Button.c,281 :: 		atc17[tr5+1] = '\0';
	MOVLW       1
	ADDWF       _tr5+0, 0 
	MOVWF       R0 
	MOVLW       0
	ADDWFC      _tr5+1, 0 
	MOVWF       R1 
	MOVLW       _atc17+0
	ADDWF       R0, 0 
	MOVWF       FSR1 
	MOVLW       hi_addr(_atc17+0)
	ADDWFC      R1, 0 
	MOVWF       FSR1H 
	CLRF        POSTINC1+0 
;Button.c,282 :: 		f1=0,f2=0,f3=0,f4=0,f6=0;
	CLRF        _f1+0 
	CLRF        _f2+0 
	CLRF        _f3+0 
	CLRF        _f4+0 
	CLRF        _f6+0 
;Button.c,283 :: 		tr5 = tr5 + 1;
	INFSNZ      _tr5+0, 1 
	INCF        _tr5+1, 1 
;Button.c,284 :: 		if(EEPROM_Read(tr+1) == '~')
	MOVLW       1
	ADDWF       _tr+0, 0 
	MOVWF       FARG_EEPROM_Read_address+0 
	MOVLW       0
	ADDWFC      _tr+1, 0 
	MOVWF       FARG_EEPROM_Read_address+1 
	CALL        _EEPROM_Read+0, 0
	MOVF        R0, 0 
	XORLW       126
	BTFSS       STATUS+0, 2 
	GOTO        L_main72
;Button.c,285 :: 		f5=0,f6=1;
	CLRF        _f5+0 
	MOVLW       1
	MOVWF       _f6+0 
L_main72:
;Button.c,286 :: 		}
	GOTO        L_main73
L_main71:
;Button.c,288 :: 		else if(EEPROM_Read(tr) != '~' && f6 == 1)  //plaka
	MOVF        _tr+0, 0 
	MOVWF       FARG_EEPROM_Read_address+0 
	MOVF        _tr+1, 0 
	MOVWF       FARG_EEPROM_Read_address+1 
	CALL        _EEPROM_Read+0, 0
	MOVF        R0, 0 
	XORLW       126
	BTFSC       STATUS+0, 2 
	GOTO        L_main76
	MOVF        _f6+0, 0 
	XORLW       1
	BTFSS       STATUS+0, 2 
	GOTO        L_main76
L__main124:
;Button.c,290 :: 		plaka[tr6] = EEPROM_Read(tr);
	MOVLW       _plaka+0
	ADDWF       _tr6+0, 0 
	MOVWF       FLOC__main+0 
	MOVLW       hi_addr(_plaka+0)
	ADDWFC      _tr6+1, 0 
	MOVWF       FLOC__main+1 
	MOVF        _tr+0, 0 
	MOVWF       FARG_EEPROM_Read_address+0 
	MOVF        _tr+1, 0 
	MOVWF       FARG_EEPROM_Read_address+1 
	CALL        _EEPROM_Read+0, 0
	MOVFF       FLOC__main+0, FSR1
	MOVFF       FLOC__main+1, FSR1H
	MOVF        R0, 0 
	MOVWF       POSTINC1+0 
;Button.c,291 :: 		plaka[tr6+1] = '\0';
	MOVLW       1
	ADDWF       _tr6+0, 0 
	MOVWF       R0 
	MOVLW       0
	ADDWFC      _tr6+1, 0 
	MOVWF       R1 
	MOVLW       _plaka+0
	ADDWF       R0, 0 
	MOVWF       FSR1 
	MOVLW       hi_addr(_plaka+0)
	ADDWFC      R1, 0 
	MOVWF       FSR1H 
	CLRF        POSTINC1+0 
;Button.c,292 :: 		f1=0,f2=0,f3=0,f4=0,f5=0;
	CLRF        _f1+0 
	CLRF        _f2+0 
	CLRF        _f3+0 
	CLRF        _f4+0 
	CLRF        _f5+0 
;Button.c,293 :: 		tr6 = tr6 + 1;
	INFSNZ      _tr6+0, 1 
	INCF        _tr6+1, 1 
;Button.c,294 :: 		if(EEPROM_Read(tr+1) == '~')
	MOVLW       1
	ADDWF       _tr+0, 0 
	MOVWF       FARG_EEPROM_Read_address+0 
	MOVLW       0
	ADDWFC      _tr+1, 0 
	MOVWF       FARG_EEPROM_Read_address+1 
	CALL        _EEPROM_Read+0, 0
	MOVF        R0, 0 
	XORLW       126
	BTFSS       STATUS+0, 2 
	GOTO        L_main77
;Button.c,295 :: 		f6=0;
	CLRF        _f6+0 
L_main77:
;Button.c,296 :: 		}
L_main76:
L_main73:
L_main68:
L_main63:
L_main58:
L_main53:
;Button.c,297 :: 		tr = tr + 1;
	INFSNZ      _tr+0, 1 
	INCF        _tr+1, 1 
;Button.c,298 :: 		}
	GOTO        L_main47
L_main48:
;Button.c,299 :: 		delay_ms(100);
	MOVLW       2
	MOVWF       R11, 0
	MOVLW       4
	MOVWF       R12, 0
	MOVLW       186
	MOVWF       R13, 0
L_main78:
	DECFSZ      R13, 1, 1
	BRA         L_main78
	DECFSZ      R12, 1, 1
	BRA         L_main78
	DECFSZ      R11, 1, 1
	BRA         L_main78
	NOP
;Button.c,301 :: 		}
L_main46:
;Button.c,303 :: 		CREN_RC1STA_bit = 0;
	BCF         CREN_RC1STA_bit+0, 4 
;Button.c,304 :: 		delay_ms(10);
	MOVLW       26
	MOVWF       R12, 0
	MOVLW       248
	MOVWF       R13, 0
L_main79:
	DECFSZ      R13, 1, 1
	BRA         L_main79
	DECFSZ      R12, 1, 1
	BRA         L_main79
	NOP
;Button.c,305 :: 		CREN_RC1STA_bit = 1;
	BSF         CREN_RC1STA_bit+0, 4 
;Button.c,307 :: 		DELAY_MS(30000);
	MOVLW       2
	MOVWF       R10, 0
	MOVLW       49
	MOVWF       R11, 0
	MOVLW       98
	MOVWF       R12, 0
	MOVLW       69
	MOVWF       R13, 0
L_main80:
	DECFSZ      R13, 1, 1
	BRA         L_main80
	DECFSZ      R12, 1, 1
	BRA         L_main80
	DECFSZ      R11, 1, 1
	BRA         L_main80
	DECFSZ      R10, 1, 1
	BRA         L_main80
;Button.c,308 :: 		while(1)
L_main81:
;Button.c,310 :: 		while(flag_NO_CRRIER)
L_main83:
	MOVF        _flag_NO_CRRIER+0, 1 
	BTFSC       STATUS+0, 2 
	GOTO        L_main84
;Button.c,312 :: 		port_init();
	CALL        _port_init+0, 0
;Button.c,313 :: 		interrupt_init();
	CALL        _interrupt_init+0, 0
;Button.c,314 :: 		LCD_init_();
	CALL        _LCD_init_+0, 0
;Button.c,315 :: 		UART_init();
	CALL        _UART_init+0, 0
;Button.c,316 :: 		if(OK_Response_AT(atc2))
	MOVLW       _atc2+0
	MOVWF       FARG_OK_Response_AT_atc+0 
	MOVLW       hi_addr(_atc2+0)
	MOVWF       FARG_OK_Response_AT_atc+1 
	CALL        _OK_Response_AT+0, 0
	MOVF        R0, 1 
	BTFSC       STATUS+0, 2 
	GOTO        L_main85
;Button.c,317 :: 		break;
	GOTO        L_main84
L_main85:
;Button.c,318 :: 		CREN_RC1STA_bit = 0;
	BCF         CREN_RC1STA_bit+0, 4 
;Button.c,319 :: 		delay_ms(10);
	MOVLW       26
	MOVWF       R12, 0
	MOVLW       248
	MOVWF       R13, 0
L_main86:
	DECFSZ      R13, 1, 1
	BRA         L_main86
	DECFSZ      R12, 1, 1
	BRA         L_main86
	NOP
;Button.c,320 :: 		CREN_RC1STA_bit = 1;
	BSF         CREN_RC1STA_bit+0, 4 
;Button.c,322 :: 		if(OK_Response_AT(atc1))
	MOVLW       _atc1+0
	MOVWF       FARG_OK_Response_AT_atc+0 
	MOVLW       hi_addr(_atc1+0)
	MOVWF       FARG_OK_Response_AT_atc+1 
	CALL        _OK_Response_AT+0, 0
	MOVF        R0, 1 
	BTFSC       STATUS+0, 2 
	GOTO        L_main87
;Button.c,323 :: 		break;
	GOTO        L_main84
L_main87:
;Button.c,325 :: 		CREN_RC1STA_bit = 0;
	BCF         CREN_RC1STA_bit+0, 4 
;Button.c,326 :: 		delay_ms(10);
	MOVLW       26
	MOVWF       R12, 0
	MOVLW       248
	MOVWF       R13, 0
L_main88:
	DECFSZ      R13, 1, 1
	BRA         L_main88
	DECFSZ      R12, 1, 1
	BRA         L_main88
	NOP
;Button.c,327 :: 		CREN_RC1STA_bit = 1;
	BSF         CREN_RC1STA_bit+0, 4 
;Button.c,329 :: 		if(OK_Response_AT(atc11))
	MOVLW       _atc11+0
	MOVWF       FARG_OK_Response_AT_atc+0 
	MOVLW       hi_addr(_atc11+0)
	MOVWF       FARG_OK_Response_AT_atc+1 
	CALL        _OK_Response_AT+0, 0
	MOVF        R0, 1 
	BTFSC       STATUS+0, 2 
	GOTO        L_main89
;Button.c,330 :: 		break;
	GOTO        L_main84
L_main89:
;Button.c,331 :: 		if(OK_Response_AT(atc21))
	MOVLW       _atc21+0
	MOVWF       FARG_OK_Response_AT_atc+0 
	MOVLW       hi_addr(_atc21+0)
	MOVWF       FARG_OK_Response_AT_atc+1 
	CALL        _OK_Response_AT+0, 0
	MOVF        R0, 1 
	BTFSC       STATUS+0, 2 
	GOTO        L_main90
;Button.c,332 :: 		break;
	GOTO        L_main84
L_main90:
;Button.c,333 :: 		if(OK_Response_AT(atc22))
	MOVLW       _atc22+0
	MOVWF       FARG_OK_Response_AT_atc+0 
	MOVLW       hi_addr(_atc22+0)
	MOVWF       FARG_OK_Response_AT_atc+1 
	CALL        _OK_Response_AT+0, 0
	MOVF        R0, 1 
	BTFSC       STATUS+0, 2 
	GOTO        L_main91
;Button.c,334 :: 		break;
	GOTO        L_main84
L_main91:
;Button.c,335 :: 		if(OK_Response_AT(atc23))
	MOVLW       _atc23+0
	MOVWF       FARG_OK_Response_AT_atc+0 
	MOVLW       hi_addr(_atc23+0)
	MOVWF       FARG_OK_Response_AT_atc+1 
	CALL        _OK_Response_AT+0, 0
	MOVF        R0, 1 
	BTFSC       STATUS+0, 2 
	GOTO        L_main92
;Button.c,336 :: 		break;
	GOTO        L_main84
L_main92:
;Button.c,337 :: 		if(OK_Response_AT(atc18))
	MOVLW       _atc18+0
	MOVWF       FARG_OK_Response_AT_atc+0 
	MOVLW       hi_addr(_atc18+0)
	MOVWF       FARG_OK_Response_AT_atc+1 
	CALL        _OK_Response_AT+0, 0
	MOVF        R0, 1 
	BTFSC       STATUS+0, 2 
	GOTO        L_main93
;Button.c,338 :: 		break;
	GOTO        L_main84
L_main93:
;Button.c,339 :: 		if(OK_Response_AT(atc9))
	MOVLW       _atc9+0
	MOVWF       FARG_OK_Response_AT_atc+0 
	MOVLW       hi_addr(_atc9+0)
	MOVWF       FARG_OK_Response_AT_atc+1 
	CALL        _OK_Response_AT+0, 0
	MOVF        R0, 1 
	BTFSC       STATUS+0, 2 
	GOTO        L_main94
;Button.c,340 :: 		break;
	GOTO        L_main84
L_main94:
;Button.c,341 :: 		if(OK_Response_AT(atc3))
	MOVLW       _atc3+0
	MOVWF       FARG_OK_Response_AT_atc+0 
	MOVLW       hi_addr(_atc3+0)
	MOVWF       FARG_OK_Response_AT_atc+1 
	CALL        _OK_Response_AT+0, 0
	MOVF        R0, 1 
	BTFSC       STATUS+0, 2 
	GOTO        L_main95
;Button.c,342 :: 		break;
	GOTO        L_main84
L_main95:
;Button.c,343 :: 		if(OK_Response_AT(atc4))
	MOVLW       _atc4+0
	MOVWF       FARG_OK_Response_AT_atc+0 
	MOVLW       hi_addr(_atc4+0)
	MOVWF       FARG_OK_Response_AT_atc+1 
	CALL        _OK_Response_AT+0, 0
	MOVF        R0, 1 
	BTFSC       STATUS+0, 2 
	GOTO        L_main96
;Button.c,344 :: 		break;
	GOTO        L_main84
L_main96:
;Button.c,345 :: 		if(OK_Response_AT(atc19))
	MOVLW       _atc19+0
	MOVWF       FARG_OK_Response_AT_atc+0 
	MOVLW       hi_addr(_atc19+0)
	MOVWF       FARG_OK_Response_AT_atc+1 
	CALL        _OK_Response_AT+0, 0
	MOVF        R0, 1 
	BTFSC       STATUS+0, 2 
	GOTO        L_main97
;Button.c,346 :: 		break;
	GOTO        L_main84
L_main97:
;Button.c,347 :: 		if(OK_Response_AT(atc17))
	MOVLW       _atc17+0
	MOVWF       FARG_OK_Response_AT_atc+0 
	MOVLW       hi_addr(_atc17+0)
	MOVWF       FARG_OK_Response_AT_atc+1 
	CALL        _OK_Response_AT+0, 0
	MOVF        R0, 1 
	BTFSC       STATUS+0, 2 
	GOTO        L_main98
;Button.c,348 :: 		break;
	GOTO        L_main84
L_main98:
;Button.c,349 :: 		flag_NO_CRRIER = 0;
	CLRF        _flag_NO_CRRIER+0 
;Button.c,350 :: 		flag_for_NO_CARRIER_check = 1;
	MOVLW       1
	MOVWF       _flag_for_NO_CARRIER_check+0 
;Button.c,351 :: 		}
	GOTO        L_main83
L_main84:
;Button.c,353 :: 		while(flag_for_NO_CARRIER_check)
L_main99:
	MOVF        _flag_for_NO_CARRIER_check+0, 1 
	BTFSC       STATUS+0, 2 
	GOTO        L_main100
;Button.c,355 :: 		if(readGPS[5] == 'R' && readGPS[6] == 'M' && readGPS[7] == 'C' && FlagforGPSData == 1)
	MOVF        _readGPS+5, 0 
	XORLW       82
	BTFSS       STATUS+0, 2 
	GOTO        L_main103
	MOVF        _readGPS+6, 0 
	XORLW       77
	BTFSS       STATUS+0, 2 
	GOTO        L_main103
	MOVF        _readGPS+7, 0 
	XORLW       67
	BTFSS       STATUS+0, 2 
	GOTO        L_main103
	MOVF        _FlagforGPSData+0, 0 
	XORLW       1
	BTFSS       STATUS+0, 2 
	GOTO        L_main103
L__main123:
;Button.c,357 :: 		send_atc(readGPS);
	MOVLW       _readGPS+0
	MOVWF       FARG_send_atc_s+0 
	MOVLW       hi_addr(_readGPS+0)
	MOVWF       FARG_send_atc_s+1 
	CALL        _send_atc+0, 0
;Button.c,358 :: 		FlagforGPSData = 0;
	CLRF        _FlagforGPSData+0 
;Button.c,359 :: 		delay_ms(7000);
	MOVLW       72
	MOVWF       R11, 0
	MOVLW       6
	MOVWF       R12, 0
	MOVLW       159
	MOVWF       R13, 0
L_main104:
	DECFSZ      R13, 1, 1
	BRA         L_main104
	DECFSZ      R12, 1, 1
	BRA         L_main104
	DECFSZ      R11, 1, 1
	BRA         L_main104
	NOP
	NOP
;Button.c,360 :: 		}
L_main103:
;Button.c,361 :: 		if(RC1STA.B1 == 1)
	BTFSS       RC1STA+0, 1 
	GOTO        L_main105
;Button.c,363 :: 		RC1STA.B4 = 0;
	BCF         RC1STA+0, 4 
;Button.c,364 :: 		delay_ms(10);
	MOVLW       26
	MOVWF       R12, 0
	MOVLW       248
	MOVWF       R13, 0
L_main106:
	DECFSZ      R13, 1, 1
	BRA         L_main106
	DECFSZ      R12, 1, 1
	BRA         L_main106
	NOP
;Button.c,365 :: 		RC1STA.B4 = 1;
	BSF         RC1STA+0, 4 
;Button.c,366 :: 		UART1_Init(19200);
	BSF         BAUDCON+0, 3, 0
	CLRF        SPBRGH+0 
	MOVLW       103
	MOVWF       SPBRG+0 
	BSF         TXSTA+0, 2, 0
	CALL        _UART1_Init+0, 0
;Button.c,367 :: 		}
L_main105:
;Button.c,369 :: 		if(RC2STA.B1 == 1 || PORTD.F6 == 0)
	BTFSC       RC2STA+0, 1 
	GOTO        L__main122
	BTFSS       PORTD+0, 6 
	GOTO        L__main122
	GOTO        L_main109
L__main122:
;Button.c,371 :: 		RC2STA.B4 = 0;
	BCF         RC2STA+0, 4 
;Button.c,372 :: 		delay_ms(10);
	MOVLW       26
	MOVWF       R12, 0
	MOVLW       248
	MOVWF       R13, 0
L_main110:
	DECFSZ      R13, 1, 1
	BRA         L_main110
	DECFSZ      R12, 1, 1
	BRA         L_main110
	NOP
;Button.c,373 :: 		RC2STA.B4 = 1;
	BSF         RC2STA+0, 4 
;Button.c,374 :: 		UART2_Init(4800);
	BSF         BAUDCON2+0, 3, 0
	MOVLW       1
	MOVWF       SPBRGH2+0 
	MOVLW       160
	MOVWF       SPBRG2+0 
	BSF         TXSTA2+0, 2, 0
	CALL        _UART2_Init+0, 0
;Button.c,375 :: 		}
L_main109:
;Button.c,377 :: 		if(read[0] == 'E' && read[1] == 'R' && read[2] == 'R' && read[3] == 'O' && read[4] == 'R')
	MOVF        _read+0, 0 
	XORLW       69
	BTFSS       STATUS+0, 2 
	GOTO        L_main113
	MOVF        _read+1, 0 
	XORLW       82
	BTFSS       STATUS+0, 2 
	GOTO        L_main113
	MOVF        _read+2, 0 
	XORLW       82
	BTFSS       STATUS+0, 2 
	GOTO        L_main113
	MOVF        _read+3, 0 
	XORLW       79
	BTFSS       STATUS+0, 2 
	GOTO        L_main113
	MOVF        _read+4, 0 
	XORLW       82
	BTFSS       STATUS+0, 2 
	GOTO        L_main113
L__main121:
;Button.c,379 :: 		flag_NO_CRRIER = 1;
	MOVLW       1
	MOVWF       _flag_NO_CRRIER+0 
;Button.c,380 :: 		flag_for_NO_CARRIER_check = 0;
	CLRF        _flag_for_NO_CARRIER_check+0 
;Button.c,381 :: 		}
L_main113:
;Button.c,382 :: 		}
	GOTO        L_main99
L_main100:
;Button.c,383 :: 		}
	GOTO        L_main81
;Button.c,384 :: 		}
L_end_main:
	GOTO        $+0
; end of _main
